(lp0
(lp1
(lp2
I1
aI4
aa(lp3
I1
aI5
aa(lp4
I1
aI6
aa(lp5
I2
aI4
aa(lp6
I2
aI5
aa(lp7
I2
aI6
aa(lp8
I3
aI4
aa(lp9
I3
aI5
aa(lp10
I3
aI6
aaa(lp11
(lp12
I1
aI3
aa(lp13
I1
aI5
aa(lp14
I1
aI6
aa(lp15
I2
aI3
aa(lp16
I2
aI5
aa(lp17
I2
aI6
aa(lp18
I3
aI4
aa(lp19
I4
aI5
aa(lp20
I4
aI6
aaa(lp21
(lp22
I1
aI3
aa(lp23
I1
aI4
aa(lp24
I1
aI6
aa(lp25
I2
aI3
aa(lp26
I2
aI4
aa(lp27
I2
aI6
aa(lp28
I3
aI5
aa(lp29
I4
aI5
aa(lp30
I5
aI6
aaa(lp31
(lp32
I1
aI3
aa(lp33
I1
aI4
aa(lp34
I1
aI5
aa(lp35
I2
aI3
aa(lp36
I2
aI4
aa(lp37
I2
aI5
aa(lp38
I3
aI6
aa(lp39
I4
aI6
aa(lp40
I5
aI6
aaa(lp41
(lp42
I1
aI2
aa(lp43
I1
aI5
aa(lp44
I1
aI6
aa(lp45
I2
aI3
aa(lp46
I2
aI4
aa(lp47
I3
aI5
aa(lp48
I3
aI6
aa(lp49
I4
aI5
aa(lp50
I4
aI6
aaa(lp51
(lp52
I1
aI2
aa(lp53
I1
aI4
aa(lp54
I1
aI6
aa(lp55
I2
aI3
aa(lp56
I2
aI5
aa(lp57
I3
aI4
aa(lp58
I3
aI6
aa(lp59
I4
aI5
aa(lp60
I5
aI6
aaa(lp61
(lp62
I1
aI2
aa(lp63
I1
aI4
aa(lp64
I1
aI5
aa(lp65
I2
aI3
aa(lp66
I2
aI6
aa(lp67
I3
aI4
aa(lp68
I3
aI5
aa(lp69
I4
aI6
aa(lp70
I5
aI6
aaa(lp71
(lp72
I1
aI2
aa(lp73
I1
aI3
aa(lp74
I1
aI6
aa(lp75
I2
aI4
aa(lp76
I2
aI5
aa(lp77
I3
aI4
aa(lp78
I3
aI5
aa(lp79
I4
aI6
aa(lp80
I5
aI6
aaa(lp81
(lp82
I1
aI2
aa(lp83
I1
aI3
aa(lp84
I1
aI5
aa(lp85
I2
aI4
aa(lp86
I2
aI6
aa(lp87
I3
aI4
aa(lp88
I3
aI6
aa(lp89
I4
aI5
aa(lp90
I5
aI6
aaa(lp91
(lp92
I1
aI2
aa(lp93
I1
aI3
aa(lp94
I1
aI4
aa(lp95
I2
aI5
aa(lp96
I2
aI6
aa(lp97
I3
aI5
aa(lp98
I3
aI6
aa(lp99
I4
aI5
aa(lp100
I4
aI6
aaa.