(lp0
(lp1
(lp2
I1
aI2
aa(lp3
I1
aI5
aa(lp4
I1
aI6
aa(lp5
I2
aI4
aa(lp6
I2
aI5
aa(lp7
I3
aI4
aa(lp8
I3
aI5
aa(lp9
I3
aI6
aa(lp10
I4
aI6
aaa(lp11
(lp12
I1
aI2
aa(lp13
I1
aI5
aa(lp14
I1
aI6
aa(lp15
I2
aI4
aa(lp16
I2
aI6
aa(lp17
I3
aI4
aa(lp18
I3
aI5
aa(lp19
I3
aI6
aa(lp20
I4
aI5
aaa(lp21
(lp22
I1
aI2
aa(lp23
I1
aI4
aa(lp24
I1
aI6
aa(lp25
I2
aI4
aa(lp26
I2
aI5
aa(lp27
I3
aI4
aa(lp28
I3
aI5
aa(lp29
I3
aI6
aa(lp30
I5
aI6
aaa(lp31
(lp32
I1
aI2
aa(lp33
I1
aI4
aa(lp34
I1
aI6
aa(lp35
I2
aI5
aa(lp36
I2
aI6
aa(lp37
I3
aI4
aa(lp38
I3
aI5
aa(lp39
I3
aI6
aa(lp40
I4
aI5
aaa(lp41
(lp42
I1
aI2
aa(lp43
I1
aI4
aa(lp44
I1
aI5
aa(lp45
I2
aI5
aa(lp46
I2
aI6
aa(lp47
I3
aI4
aa(lp48
I3
aI5
aa(lp49
I3
aI6
aa(lp50
I4
aI6
aaa(lp51
(lp52
I1
aI2
aa(lp53
I1
aI4
aa(lp54
I1
aI5
aa(lp55
I2
aI4
aa(lp56
I2
aI6
aa(lp57
I3
aI4
aa(lp58
I3
aI5
aa(lp59
I3
aI6
aa(lp60
I5
aI6
aaa(lp61
(lp62
I1
aI2
aa(lp63
I1
aI5
aa(lp64
I1
aI6
aa(lp65
I2
aI3
aa(lp66
I2
aI5
aa(lp67
I3
aI4
aa(lp68
I3
aI6
aa(lp69
I4
aI5
aa(lp70
I4
aI6
aaa(lp71
(lp72
I1
aI2
aa(lp73
I1
aI5
aa(lp74
I1
aI6
aa(lp75
I2
aI3
aa(lp76
I2
aI6
aa(lp77
I3
aI4
aa(lp78
I3
aI5
aa(lp79
I4
aI5
aa(lp80
I4
aI6
aaa(lp81
(lp82
I1
aI2
aa(lp83
I1
aI3
aa(lp84
I1
aI6
aa(lp85
I2
aI3
aa(lp86
I2
aI5
aa(lp87
I3
aI4
aa(lp88
I4
aI5
aa(lp89
I4
aI6
aa(lp90
I5
aI6
aaa(lp91
(lp92
I1
aI2
aa(lp93
I1
aI3
aa(lp94
I1
aI6
aa(lp95
I2
aI5
aa(lp96
I2
aI6
aa(lp97
I3
aI4
aa(lp98
I3
aI5
aa(lp99
I4
aI5
aa(lp100
I4
aI6
aaa(lp101
(lp102
I1
aI2
aa(lp103
I1
aI3
aa(lp104
I1
aI5
aa(lp105
I2
aI5
aa(lp106
I2
aI6
aa(lp107
I3
aI4
aa(lp108
I3
aI6
aa(lp109
I4
aI5
aa(lp110
I4
aI6
aaa(lp111
(lp112
I1
aI2
aa(lp113
I1
aI3
aa(lp114
I1
aI5
aa(lp115
I2
aI3
aa(lp116
I2
aI6
aa(lp117
I3
aI4
aa(lp118
I4
aI5
aa(lp119
I4
aI6
aa(lp120
I5
aI6
aaa(lp121
(lp122
I1
aI2
aa(lp123
I1
aI3
aa(lp124
I1
aI6
aa(lp125
I2
aI3
aa(lp126
I2
aI4
aa(lp127
I3
aI5
aa(lp128
I4
aI5
aa(lp129
I4
aI6
aa(lp130
I5
aI6
aaa(lp131
(lp132
I1
aI2
aa(lp133
I1
aI3
aa(lp134
I1
aI6
aa(lp135
I2
aI4
aa(lp136
I2
aI6
aa(lp137
I3
aI4
aa(lp138
I3
aI5
aa(lp139
I4
aI5
aa(lp140
I5
aI6
aaa(lp141
(lp142
I1
aI2
aa(lp143
I1
aI4
aa(lp144
I1
aI6
aa(lp145
I2
aI3
aa(lp146
I2
aI4
aa(lp147
I3
aI5
aa(lp148
I3
aI6
aa(lp149
I4
aI5
aa(lp150
I5
aI6
aaa(lp151
(lp152
I1
aI2
aa(lp153
I1
aI4
aa(lp154
I1
aI6
aa(lp155
I2
aI3
aa(lp156
I2
aI6
aa(lp157
I3
aI4
aa(lp158
I3
aI5
aa(lp159
I4
aI5
aa(lp160
I5
aI6
aaa(lp161
(lp162
I1
aI2
aa(lp163
I1
aI3
aa(lp164
I1
aI4
aa(lp165
I2
aI3
aa(lp166
I2
aI6
aa(lp167
I3
aI5
aa(lp168
I4
aI5
aa(lp169
I4
aI6
aa(lp170
I5
aI6
aaa(lp171
(lp172
I1
aI2
aa(lp173
I1
aI3
aa(lp174
I1
aI4
aa(lp175
I2
aI4
aa(lp176
I2
aI6
aa(lp177
I3
aI5
aa(lp178
I3
aI6
aa(lp179
I4
aI5
aa(lp180
I5
aI6
aaa(lp181
(lp182
I1
aI2
aa(lp183
I1
aI3
aa(lp184
I1
aI5
aa(lp185
I2
aI4
aa(lp186
I2
aI5
aa(lp187
I3
aI4
aa(lp188
I3
aI6
aa(lp189
I4
aI6
aa(lp190
I5
aI6
aaa(lp191
(lp192
I1
aI2
aa(lp193
I1
aI3
aa(lp194
I1
aI5
aa(lp195
I2
aI3
aa(lp196
I2
aI4
aa(lp197
I3
aI6
aa(lp198
I4
aI5
aa(lp199
I4
aI6
aa(lp200
I5
aI6
aaa(lp201
(lp202
I1
aI2
aa(lp203
I1
aI3
aa(lp204
I1
aI4
aa(lp205
I2
aI4
aa(lp206
I2
aI5
aa(lp207
I3
aI5
aa(lp208
I3
aI6
aa(lp209
I4
aI6
aa(lp210
I5
aI6
aaa(lp211
(lp212
I1
aI2
aa(lp213
I1
aI3
aa(lp214
I1
aI4
aa(lp215
I2
aI3
aa(lp216
I2
aI5
aa(lp217
I3
aI6
aa(lp218
I4
aI5
aa(lp219
I4
aI6
aa(lp220
I5
aI6
aaa(lp221
(lp222
I1
aI2
aa(lp223
I1
aI4
aa(lp224
I1
aI5
aa(lp225
I2
aI3
aa(lp226
I2
aI5
aa(lp227
I3
aI4
aa(lp228
I3
aI6
aa(lp229
I4
aI6
aa(lp230
I5
aI6
aaa(lp231
(lp232
I1
aI2
aa(lp233
I1
aI4
aa(lp234
I1
aI5
aa(lp235
I2
aI3
aa(lp236
I2
aI4
aa(lp237
I3
aI5
aa(lp238
I3
aI6
aa(lp239
I4
aI6
aa(lp240
I5
aI6
aaa(lp241
(lp242
I1
aI3
aa(lp243
I1
aI5
aa(lp244
I1
aI6
aa(lp245
I2
aI4
aa(lp246
I2
aI5
aa(lp247
I2
aI6
aa(lp248
I3
aI4
aa(lp249
I3
aI5
aa(lp250
I4
aI6
aaa(lp251
(lp252
I1
aI3
aa(lp253
I1
aI5
aa(lp254
I1
aI6
aa(lp255
I2
aI4
aa(lp256
I2
aI5
aa(lp257
I2
aI6
aa(lp258
I3
aI4
aa(lp259
I3
aI6
aa(lp260
I4
aI5
aaa(lp261
(lp262
I1
aI3
aa(lp263
I1
aI4
aa(lp264
I1
aI6
aa(lp265
I2
aI4
aa(lp266
I2
aI5
aa(lp267
I2
aI6
aa(lp268
I3
aI4
aa(lp269
I3
aI5
aa(lp270
I5
aI6
aaa(lp271
(lp272
I1
aI3
aa(lp273
I1
aI4
aa(lp274
I1
aI6
aa(lp275
I2
aI4
aa(lp276
I2
aI5
aa(lp277
I2
aI6
aa(lp278
I3
aI5
aa(lp279
I3
aI6
aa(lp280
I4
aI5
aaa(lp281
(lp282
I1
aI3
aa(lp283
I1
aI4
aa(lp284
I1
aI5
aa(lp285
I2
aI4
aa(lp286
I2
aI5
aa(lp287
I2
aI6
aa(lp288
I3
aI5
aa(lp289
I3
aI6
aa(lp290
I4
aI6
aaa(lp291
(lp292
I1
aI3
aa(lp293
I1
aI4
aa(lp294
I1
aI5
aa(lp295
I2
aI4
aa(lp296
I2
aI5
aa(lp297
I2
aI6
aa(lp298
I3
aI4
aa(lp299
I3
aI6
aa(lp300
I5
aI6
aaa(lp301
(lp302
I1
aI3
aa(lp303
I1
aI5
aa(lp304
I1
aI6
aa(lp305
I2
aI3
aa(lp306
I2
aI4
aa(lp307
I2
aI6
aa(lp308
I3
aI5
aa(lp309
I4
aI5
aa(lp310
I4
aI6
aaa(lp311
(lp312
I1
aI3
aa(lp313
I1
aI5
aa(lp314
I1
aI6
aa(lp315
I2
aI3
aa(lp316
I2
aI4
aa(lp317
I2
aI5
aa(lp318
I3
aI6
aa(lp319
I4
aI5
aa(lp320
I4
aI6
aaa(lp321
(lp322
I1
aI2
aa(lp323
I1
aI3
aa(lp324
I1
aI6
aa(lp325
I2
aI4
aa(lp326
I2
aI5
aa(lp327
I3
aI5
aa(lp328
I3
aI6
aa(lp329
I4
aI5
aa(lp330
I4
aI6
aaa(lp331
(lp332
I1
aI2
aa(lp333
I1
aI3
aa(lp334
I1
aI5
aa(lp335
I2
aI4
aa(lp336
I2
aI6
aa(lp337
I3
aI5
aa(lp338
I3
aI6
aa(lp339
I4
aI5
aa(lp340
I4
aI6
aaa(lp341
(lp342
I1
aI2
aa(lp343
I1
aI3
aa(lp344
I1
aI6
aa(lp345
I2
aI4
aa(lp346
I2
aI5
aa(lp347
I3
aI4
aa(lp348
I3
aI6
aa(lp349
I4
aI5
aa(lp350
I5
aI6
aaa(lp351
(lp352
I1
aI3
aa(lp353
I1
aI4
aa(lp354
I1
aI6
aa(lp355
I2
aI3
aa(lp356
I2
aI5
aa(lp357
I2
aI6
aa(lp358
I3
aI4
aa(lp359
I4
aI5
aa(lp360
I5
aI6
aaa(lp361
(lp362
I1
aI3
aa(lp363
I1
aI4
aa(lp364
I1
aI6
aa(lp365
I2
aI3
aa(lp366
I2
aI4
aa(lp367
I2
aI5
aa(lp368
I3
aI6
aa(lp369
I4
aI5
aa(lp370
I5
aI6
aaa(lp371
(lp372
I1
aI2
aa(lp373
I1
aI3
aa(lp374
I1
aI4
aa(lp375
I2
aI5
aa(lp376
I2
aI6
aa(lp377
I3
aI4
aa(lp378
I3
aI6
aa(lp379
I4
aI5
aa(lp380
I5
aI6
aaa(lp381
(lp382
I1
aI2
aa(lp383
I1
aI3
aa(lp384
I1
aI5
aa(lp385
I2
aI4
aa(lp386
I2
aI6
aa(lp387
I3
aI4
aa(lp388
I3
aI5
aa(lp389
I4
aI6
aa(lp390
I5
aI6
aaa(lp391
(lp392
I1
aI2
aa(lp393
I1
aI3
aa(lp394
I1
aI4
aa(lp395
I2
aI5
aa(lp396
I2
aI6
aa(lp397
I3
aI4
aa(lp398
I3
aI5
aa(lp399
I4
aI6
aa(lp400
I5
aI6
aaa(lp401
(lp402
I1
aI3
aa(lp403
I1
aI4
aa(lp404
I1
aI5
aa(lp405
I2
aI3
aa(lp406
I2
aI4
aa(lp407
I2
aI6
aa(lp408
I3
aI5
aa(lp409
I4
aI6
aa(lp410
I5
aI6
aaa(lp411
(lp412
I1
aI3
aa(lp413
I1
aI4
aa(lp414
I1
aI5
aa(lp415
I2
aI3
aa(lp416
I2
aI5
aa(lp417
I2
aI6
aa(lp418
I3
aI4
aa(lp419
I4
aI6
aa(lp420
I5
aI6
aaa(lp421
(lp422
I1
aI4
aa(lp423
I1
aI5
aa(lp424
I1
aI6
aa(lp425
I2
aI3
aa(lp426
I2
aI4
aa(lp427
I2
aI6
aa(lp428
I3
aI5
aa(lp429
I3
aI6
aa(lp430
I4
aI5
aaa(lp431
(lp432
I1
aI4
aa(lp433
I1
aI5
aa(lp434
I1
aI6
aa(lp435
I2
aI3
aa(lp436
I2
aI4
aa(lp437
I2
aI5
aa(lp438
I3
aI5
aa(lp439
I3
aI6
aa(lp440
I4
aI6
aaa(lp441
(lp442
I1
aI2
aa(lp443
I1
aI4
aa(lp444
I1
aI6
aa(lp445
I2
aI3
aa(lp446
I2
aI5
aa(lp447
I3
aI5
aa(lp448
I3
aI6
aa(lp449
I4
aI5
aa(lp450
I4
aI6
aaa(lp451
(lp452
I1
aI2
aa(lp453
I1
aI4
aa(lp454
I1
aI5
aa(lp455
I2
aI3
aa(lp456
I2
aI6
aa(lp457
I3
aI5
aa(lp458
I3
aI6
aa(lp459
I4
aI5
aa(lp460
I4
aI6
aaa(lp461
(lp462
I1
aI4
aa(lp463
I1
aI5
aa(lp464
I1
aI6
aa(lp465
I2
aI3
aa(lp466
I2
aI5
aa(lp467
I2
aI6
aa(lp468
I3
aI4
aa(lp469
I3
aI6
aa(lp470
I4
aI5
aaa(lp471
(lp472
I1
aI4
aa(lp473
I1
aI5
aa(lp474
I1
aI6
aa(lp475
I2
aI3
aa(lp476
I2
aI5
aa(lp477
I2
aI6
aa(lp478
I3
aI4
aa(lp479
I3
aI5
aa(lp480
I4
aI6
aaa(lp481
(lp482
I1
aI3
aa(lp483
I1
aI4
aa(lp484
I1
aI6
aa(lp485
I2
aI3
aa(lp486
I2
aI5
aa(lp487
I2
aI6
aa(lp488
I3
aI5
aa(lp489
I4
aI5
aa(lp490
I4
aI6
aaa(lp491
(lp492
I1
aI3
aa(lp493
I1
aI4
aa(lp494
I1
aI5
aa(lp495
I2
aI3
aa(lp496
I2
aI5
aa(lp497
I2
aI6
aa(lp498
I3
aI6
aa(lp499
I4
aI5
aa(lp500
I4
aI6
aaa(lp501
(lp502
I1
aI3
aa(lp503
I1
aI4
aa(lp504
I1
aI6
aa(lp505
I2
aI3
aa(lp506
I2
aI4
aa(lp507
I2
aI5
aa(lp508
I3
aI5
aa(lp509
I4
aI6
aa(lp510
I5
aI6
aaa(lp511
(lp512
I1
aI2
aa(lp513
I1
aI4
aa(lp514
I1
aI6
aa(lp515
I2
aI3
aa(lp516
I2
aI5
aa(lp517
I3
aI4
aa(lp518
I3
aI5
aa(lp519
I4
aI6
aa(lp520
I5
aI6
aaa(lp521
(lp522
I1
aI3
aa(lp523
I1
aI4
aa(lp524
I1
aI5
aa(lp525
I2
aI3
aa(lp526
I2
aI4
aa(lp527
I2
aI6
aa(lp528
I3
aI6
aa(lp529
I4
aI5
aa(lp530
I5
aI6
aaa(lp531
(lp532
I1
aI2
aa(lp533
I1
aI4
aa(lp534
I1
aI5
aa(lp535
I2
aI3
aa(lp536
I2
aI6
aa(lp537
I3
aI4
aa(lp538
I3
aI6
aa(lp539
I4
aI5
aa(lp540
I5
aI6
aaa(lp541
(lp542
I1
aI2
aa(lp543
I1
aI5
aa(lp544
I1
aI6
aa(lp545
I2
aI3
aa(lp546
I2
aI4
aa(lp547
I3
aI4
aa(lp548
I3
aI6
aa(lp549
I4
aI5
aa(lp550
I5
aI6
aaa(lp551
(lp552
I1
aI4
aa(lp553
I1
aI5
aa(lp554
I1
aI6
aa(lp555
I2
aI3
aa(lp556
I2
aI4
aa(lp557
I2
aI5
aa(lp558
I3
aI4
aa(lp559
I3
aI6
aa(lp560
I5
aI6
aaa(lp561
(lp562
I1
aI2
aa(lp563
I1
aI5
aa(lp564
I1
aI6
aa(lp565
I2
aI3
aa(lp566
I2
aI4
aa(lp567
I3
aI4
aa(lp568
I3
aI5
aa(lp569
I4
aI6
aa(lp570
I5
aI6
aaa(lp571
(lp572
I1
aI3
aa(lp573
I1
aI5
aa(lp574
I1
aI6
aa(lp575
I2
aI3
aa(lp576
I2
aI4
aa(lp577
I2
aI5
aa(lp578
I3
aI4
aa(lp579
I4
aI6
aa(lp580
I5
aI6
aaa(lp581
(lp582
I1
aI3
aa(lp583
I1
aI5
aa(lp584
I1
aI6
aa(lp585
I2
aI3
aa(lp586
I2
aI4
aa(lp587
I2
aI6
aa(lp588
I3
aI4
aa(lp589
I4
aI5
aa(lp590
I5
aI6
aaa(lp591
(lp592
I1
aI4
aa(lp593
I1
aI5
aa(lp594
I1
aI6
aa(lp595
I2
aI3
aa(lp596
I2
aI4
aa(lp597
I2
aI6
aa(lp598
I3
aI4
aa(lp599
I3
aI5
aa(lp600
I5
aI6
aaa.