(lp0
(lp1
(lp2
I1
aI4
aa(lp3
I1
aI5
aa(lp4
I1
aI6
aa(lp5
I2
aI4
aa(lp6
I2
aI5
aa(lp7
I2
aI6
aa(lp8
I3
aI4
aa(lp9
I3
aI5
aa(lp10
I3
aI6
aaa(lp11
(lp12
I1
aI4
aa(lp13
I1
aI5
aa(lp14
I1
aI6
aa(lp15
I2
aI4
aa(lp16
I2
aI5
aa(lp17
I2
aI6
aa(lp18
I3
aI4
aa(lp19
I3
aI5
aa(lp20
I3
aI6
aaa(lp21
(lp22
I1
aI2
aa(lp23
I1
aI5
aa(lp24
I1
aI6
aa(lp25
I2
aI3
aa(lp26
I2
aI4
aa(lp27
I3
aI5
aa(lp28
I3
aI6
aa(lp29
I4
aI5
aa(lp30
I4
aI6
aaa.