(lp0
(lp1
(lp2
I1
aI2
aa(lp3
I1
aI4
aa(lp4
I1
aI6
aa(lp5
I2
aI5
aa(lp6
I2
aI6
aa(lp7
I3
aI4
aa(lp8
I3
aI5
aa(lp9
I3
aI6
aa(lp10
I4
aI5
aaa(lp11
(lp12
I1
aI3
aa(lp13
I1
aI4
aa(lp14
I1
aI6
aa(lp15
I2
aI4
aa(lp16
I2
aI5
aa(lp17
I2
aI6
aa(lp18
I3
aI5
aa(lp19
I3
aI6
aa(lp20
I4
aI5
aaa(lp21
(lp22
I1
aI2
aa(lp23
I1
aI5
aa(lp24
I1
aI6
aa(lp25
I2
aI4
aa(lp26
I2
aI6
aa(lp27
I3
aI4
aa(lp28
I3
aI5
aa(lp29
I3
aI6
aa(lp30
I4
aI5
aaa(lp31
(lp32
I1
aI3
aa(lp33
I1
aI5
aa(lp34
I1
aI6
aa(lp35
I2
aI4
aa(lp36
I2
aI5
aa(lp37
I2
aI6
aa(lp38
I3
aI4
aa(lp39
I3
aI6
aa(lp40
I4
aI5
aaa(lp41
(lp42
I1
aI2
aa(lp43
I1
aI5
aa(lp44
I1
aI6
aa(lp45
I2
aI4
aa(lp46
I2
aI5
aa(lp47
I3
aI4
aa(lp48
I3
aI5
aa(lp49
I3
aI6
aa(lp50
I4
aI6
aaa(lp51
(lp52
I1
aI3
aa(lp53
I1
aI5
aa(lp54
I1
aI6
aa(lp55
I2
aI4
aa(lp56
I2
aI5
aa(lp57
I2
aI6
aa(lp58
I3
aI4
aa(lp59
I3
aI5
aa(lp60
I4
aI6
aaa(lp61
(lp62
I1
aI4
aa(lp63
I1
aI5
aa(lp64
I1
aI6
aa(lp65
I2
aI3
aa(lp66
I2
aI4
aa(lp67
I2
aI6
aa(lp68
I3
aI5
aa(lp69
I3
aI6
aa(lp70
I4
aI5
aaa(lp71
(lp72
I1
aI4
aa(lp73
I1
aI5
aa(lp74
I1
aI6
aa(lp75
I2
aI3
aa(lp76
I2
aI5
aa(lp77
I2
aI6
aa(lp78
I3
aI4
aa(lp79
I3
aI6
aa(lp80
I4
aI5
aaa(lp81
(lp82
I1
aI2
aa(lp83
I1
aI4
aa(lp84
I1
aI5
aa(lp85
I2
aI5
aa(lp86
I2
aI6
aa(lp87
I3
aI4
aa(lp88
I3
aI5
aa(lp89
I3
aI6
aa(lp90
I4
aI6
aaa(lp91
(lp92
I1
aI4
aa(lp93
I1
aI5
aa(lp94
I1
aI6
aa(lp95
I2
aI3
aa(lp96
I2
aI5
aa(lp97
I2
aI6
aa(lp98
I3
aI4
aa(lp99
I3
aI5
aa(lp100
I4
aI6
aaa(lp101
(lp102
I1
aI3
aa(lp103
I1
aI4
aa(lp104
I1
aI5
aa(lp105
I2
aI4
aa(lp106
I2
aI5
aa(lp107
I2
aI6
aa(lp108
I3
aI5
aa(lp109
I3
aI6
aa(lp110
I4
aI6
aaa(lp111
(lp112
I1
aI4
aa(lp113
I1
aI5
aa(lp114
I1
aI6
aa(lp115
I2
aI3
aa(lp116
I2
aI4
aa(lp117
I2
aI5
aa(lp118
I3
aI5
aa(lp119
I3
aI6
aa(lp120
I4
aI6
aaa.